(lp0
ccopy_reg
_reconstructor
p1
(csklearn.svm.classes
LinearSVC
p2
c__builtin__
object
p3
Ntp4
Rp5
(dp6
S'loss'
p7
S'hinge'
p8
sS'C'
p9
F1.0
sS'max_iter'
p10
I200000
sS'verbose'
p11
I0
sS'fit_intercept'
p12
I01
sS'random_state'
p13
NsS'classes_'
p14
cnumpy.core.multiarray
_reconstruct
p15
(cnumpy
ndarray
p16
(I0
tp17
S'b'
p18
tp19
Rp20
(I1
(I2
tp21
cnumpy
dtype
p22
(S'i8'
p23
I0
I1
tp24
Rp25
(I3
S'<'
p26
NNNI-1
I-1
I0
tp27
bI00
S'\x00\x00\x00\x00\x00\x00\x00\x00\x01\x00\x00\x00\x00\x00\x00\x00'
p28
tp29
bsS'n_iter_'
p30
cnumpy.core.multiarray
scalar
p31
(g22
(S'i4'
p32
I0
I1
tp33
Rp34
(I3
S'<'
p35
NNNI-1
I-1
I0
tp36
bS'6k\x02\x00'
p37
tp38
Rp39
sS'intercept_scaling'
p40
I1
sS'penalty'
p41
S'l2'
p42
sS'multi_class'
p43
S'ovr'
p44
sS'coef_'
p45
g15
(g16
(I0
tp46
g18
tp47
Rp48
(I1
(I1
I5
tp49
g22
(S'f8'
p50
I0
I1
tp51
Rp52
(I3
S'<'
p53
NNNI-1
I-1
I0
tp54
bI00
S"M\x13')\xd8X\xf4?,\x82\xcc\xc3\xef\x94\xe7?QvT\xfa\xc7\xd1\xd4?\x8c\xeb\x03\xd3\n\x95\xd2\xbfX\xc8\xdb\xe3\x83\xb8\xb1?"
p55
tp56
bsS'_sklearn_version'
p57
S'0.20.dev0'
p58
sS'dual'
p59
I01
sS'tol'
p60
F1e-07
sS'intercept_'
p61
g15
(g16
(I0
tp62
g18
tp63
Rp64
(I1
(I1
tp65
g52
I00
S'\xc9\x8f3\x14\x84a\xef\xbf'
p66
tp67
bsS'class_weight'
p68
Nsbag31
(g52
S'\x0eJ*_uQ\xd8\xbf'
p69
tp70
Rp71
ag15
(g16
(I0
tp72
g18
tp73
Rp74
(I1
(I3
tp75
g52
I00
S'e\xb0\xe0\xac\x05W7@\xea\xae9h\x05\xb0:@\xf2\xed{y\xa9\xdbL@'
p76
tp77
bag15
(g16
(I0
tp78
g18
tp79
Rp80
(I1
(I3
tp81
g52
I00
S'\xfd\x99\x02(^M\x1f@\xd4v\x1d\x97G\xe0\x11@t8\xc91\xaaG!@'
p82
tp83
ba.